target datalayout = "e-m:e-p270:32:32-p271:32:32-p272:64:64-i64:64-i128:128-f80:128-n8:16:32:64-S128"
target triple = "x86_64-pc-linux-gnu"

%"class.std::__cxx11::basic_string" = type { %"struct.std::__cxx11::basic_string<char>::_Alloc_hider", i64, %union.anon }
%"struct.std::__cxx11::basic_string<char>::_Alloc_hider" = type { ptr }
%union.anon = type { i64, [8 x i8] }
%class.cmFindBase = type { ptr, %class.cmFindCommon, %"class.std::__cxx11::basic_string", %"class.std::__cxx11::basic_string", i32, %"class.std::__cxx11::basic_string", %"class.std::vector", i8, i8, %"class.std::__cxx11::basic_string", i8, i8, i8, i8, %"class.std::__cxx11::basic_string" }
%class.cmFindCommon = type { %"class.std::vector", %"class.std::vector", %"class.std::__cxx11::basic_string", i32, i8, i8, i8, i8, i8, i8, i8, i8, i32, %"class.std::vector", %"class.std::map", %"class.std::vector.6", %"class.std::map.11", %"class.std::map.19", %"class.std::vector", %"class.std::set", i8, i8, i8, i8, i8, i8, ptr, ptr }
%"class.std::map" = type { %"class.std::_Rb_tree" }
%"class.std::_Rb_tree" = type { %"struct.std::_Rb_tree<cmFindCommon::PathGroup, std::pair<const cmFindCommon::PathGroup, std::vector<cmFindCommon::PathLabel>>, std::_Select1st<std::pair<const cmFindCommon::PathGroup, std::vector<cmFindCommon::PathLabel>>>, std::less<cmFindCommon::PathGroup>>::_Rb_tree_impl" }
%"struct.std::_Rb_tree<cmFindCommon::PathGroup, std::pair<const cmFindCommon::PathGroup, std::vector<cmFindCommon::PathLabel>>, std::_Select1st<std::pair<const cmFindCommon::PathGroup, std::vector<cmFindCommon::PathLabel>>>, std::less<cmFindCommon::PathGroup>>::_Rb_tree_impl" = type { %"struct.std::_Rb_tree_key_compare", %"struct.std::_Rb_tree_header" }
%"struct.std::_Rb_tree_key_compare" = type { %"struct.std::less" }
%"struct.std::less" = type { i8 }
%"struct.std::_Rb_tree_header" = type { %"struct.std::_Rb_tree_node_base", i64 }
%"struct.std::_Rb_tree_node_base" = type { i32, ptr, ptr, ptr }
%"class.std::vector.6" = type { %"struct.std::_Vector_base.7" }
%"struct.std::_Vector_base.7" = type { %"struct.std::_Vector_base<cmFindCommon::PathGroup, std::allocator<cmFindCommon::PathGroup>>::_Vector_impl" }
%"struct.std::_Vector_base<cmFindCommon::PathGroup, std::allocator<cmFindCommon::PathGroup>>::_Vector_impl" = type { %"struct.std::_Vector_base<cmFindCommon::PathGroup, std::allocator<cmFindCommon::PathGroup>>::_Vector_impl_data" }
%"struct.std::_Vector_base<cmFindCommon::PathGroup, std::allocator<cmFindCommon::PathGroup>>::_Vector_impl_data" = type { ptr, ptr, ptr }
%"class.std::map.11" = type { %"class.std::_Rb_tree.12" }
%"class.std::_Rb_tree.12" = type { %"struct.std::_Rb_tree<std::__cxx11::basic_string<char>, std::pair<const std::__cxx11::basic_string<char>, cmFindCommon::PathLabel>, std::_Select1st<std::pair<const std::__cxx11::basic_string<char>, cmFindCommon::PathLabel>>, std::less<std::__cxx11::basic_string<char>>>::_Rb_tree_impl" }
%"struct.std::_Rb_tree<std::__cxx11::basic_string<char>, std::pair<const std::__cxx11::basic_string<char>, cmFindCommon::PathLabel>, std::_Select1st<std::pair<const std::__cxx11::basic_string<char>, cmFindCommon::PathLabel>>, std::less<std::__cxx11::basic_string<char>>>::_Rb_tree_impl" = type { %"struct.std::_Rb_tree_key_compare.16", %"struct.std::_Rb_tree_header" }
%"struct.std::_Rb_tree_key_compare.16" = type { %"struct.std::less.17" }
%"struct.std::less.17" = type { i8 }
%"class.std::map.19" = type { %"class.std::_Rb_tree.20" }
%"class.std::_Rb_tree.20" = type { %"struct.std::_Rb_tree<cmFindCommon::PathLabel, std::pair<const cmFindCommon::PathLabel, cmSearchPath>, std::_Select1st<std::pair<const cmFindCommon::PathLabel, cmSearchPath>>, std::less<cmFindCommon::PathLabel>>::_Rb_tree_impl" }
%"struct.std::_Rb_tree<cmFindCommon::PathLabel, std::pair<const cmFindCommon::PathLabel, cmSearchPath>, std::_Select1st<std::pair<const cmFindCommon::PathLabel, cmSearchPath>>, std::less<cmFindCommon::PathLabel>>::_Rb_tree_impl" = type { %"struct.std::_Rb_tree_key_compare.24", %"struct.std::_Rb_tree_header" }
%"struct.std::_Rb_tree_key_compare.24" = type { %"struct.std::less.25" }
%"struct.std::less.25" = type { i8 }
%"class.std::set" = type { %"class.std::_Rb_tree.27" }
%"class.std::_Rb_tree.27" = type { %"struct.std::_Rb_tree<cmSearchPath::PathWithPrefix, cmSearchPath::PathWithPrefix, std::_Identity<cmSearchPath::PathWithPrefix>, std::less<cmSearchPath::PathWithPrefix>>::_Rb_tree_impl" }
%"struct.std::_Rb_tree<cmSearchPath::PathWithPrefix, cmSearchPath::PathWithPrefix, std::_Identity<cmSearchPath::PathWithPrefix>, std::less<cmSearchPath::PathWithPrefix>>::_Rb_tree_impl" = type { %"struct.std::_Rb_tree_key_compare.31", %"struct.std::_Rb_tree_header" }
%"struct.std::_Rb_tree_key_compare.31" = type { %"struct.std::less.32" }
%"struct.std::less.32" = type { i8 }
%"class.std::vector" = type { %"struct.std::_Vector_base" }
%"struct.std::_Vector_base" = type { %"struct.std::_Vector_base<std::__cxx11::basic_string<char>, std::allocator<std::__cxx11::basic_string<char>>>::_Vector_impl" }
%"struct.std::_Vector_base<std::__cxx11::basic_string<char>, std::allocator<std::__cxx11::basic_string<char>>>::_Vector_impl" = type { %"struct.std::_Vector_base<std::__cxx11::basic_string<char>, std::allocator<std::__cxx11::basic_string<char>>>::_Vector_impl_data" }
%"struct.std::_Vector_base<std::__cxx11::basic_string<char>, std::allocator<std::__cxx11::basic_string<char>>>::_Vector_impl_data" = type { ptr, ptr, ptr }

; Function Attrs: mustprogress uwtable
define dso_local void @_ZN20cmFindProgramCommand17FindNormalProgramB5cxx11Ev(ptr dead_on_unwind noalias writable sret(%"class.std::__cxx11::basic_string") align 8 %0, ptr noundef nonnull align 8 dereferenceable(600) %1) #4 align 2 {
  %3 = alloca ptr, align 8
  %4 = alloca ptr, align 8
  store ptr %0, ptr %3, align 8
  store ptr %1, ptr %4, align 8
  %5 = load ptr, ptr %4, align 8
  %6 = getelementptr inbounds %class.cmFindBase, ptr %5, i32 0, i32 7
  %7 = load i8, ptr %6, align 8
  %8 = trunc i8 %7 to i1
  br i1 %8, label %9, label %10

9:                                                ; preds = %2
  call void @_ZN20cmFindProgramCommand28FindNormalProgramNamesPerDirB5cxx11Ev(ptr dead_on_unwind writable sret(%"class.std::__cxx11::basic_string") align 8 %0, ptr noundef nonnull align 8 dereferenceable(600) %5)
  br label %11

10:                                               ; preds = %2
  call void @_ZN20cmFindProgramCommand28FindNormalProgramDirsPerNameB5cxx11Ev(ptr dead_on_unwind writable sret(%"class.std::__cxx11::basic_string") align 8 %0, ptr noundef nonnull align 8 dereferenceable(600) %5)
  br label %11

11:                                               ; preds = %10, %9
  ret void
}