; Function Attrs: mustprogress uwtable
define dso_local void @_ZN20cmFindProgramCommand17FindNormalProgramB5cxx11Ev(ptr dead_on_unwind noalias writable sret(%"class.std::__cxx11::basic_string") align 8 %0, ptr noundef nonnull align 8 dereferenceable(600) %1) local_unnamed_addr #3 align 2 {
  %3 = getelementptr inbounds i8, ptr %1, i64 520
  %4 = load i8, ptr %3, align 8
  %5 = and i8 %4, 1
  %.not = icmp eq i8 %5, 0
  br i1 %.not, label %7, label %6

6:                                                ; preds = %2
  tail call void @_ZN20cmFindProgramCommand28FindNormalProgramNamesPerDirB5cxx11Ev(ptr dead_on_unwind writable sret(%"class.std::__cxx11::basic_string") align 8 %0, ptr noundef nonnull align 8 dereferenceable(600) %1)
  br label %8

7:                                                ; preds = %2
  tail call void @_ZN20cmFindProgramCommand28FindNormalProgramDirsPerNameB5cxx11Ev(ptr dead_on_unwind writable sret(%"class.std::__cxx11::basic_string") align 8 %0, ptr noundef nonnull align 8 dereferenceable(600) %1)
  br label %8

8:                                                ; preds = %7, %6
  ret void
}